; ModuleID = '19/155.c'
source_filename = "19/155.c"
target datalayout = "e-m:e-p270:32:32-p271:32:32-p272:64:64-i64:64-f80:128-n8:16:32:64-S128"
target triple = "x86_64-pc-linux-gnu"

@.str = private unnamed_addr constant [3 x i8] c"%s\00", align 1
@.str.1 = private unnamed_addr constant [3 x i8] c"%c\00", align 1

; Function Attrs: noinline nounwind uwtable
define dso_local i32 @main(i32 %0, i8** %1) #0 {
  %3 = alloca i32, align 4
  %4 = alloca i32, align 4
  %5 = alloca i8**, align 8
  %6 = alloca [200 x i8], align 16
  %7 = alloca [100 x i8], align 16
  %8 = alloca [100 x i8], align 16
  %9 = alloca i32, align 4
  %10 = alloca i32, align 4
  %11 = alloca i32, align 4
  %12 = alloca i32, align 4
  %13 = alloca i32, align 4
  store i32 0, i32* %3, align 4
  store i32 %0, i32* %4, align 4
  store i8** %1, i8*** %5, align 8
  store i32 0, i32* %10, align 4
  %14 = getelementptr inbounds [200 x i8], [200 x i8]* %6, i64 0, i64 0
  %15 = call i32 (i8*, ...) bitcast (i32 (...)* @gets to i32 (i8*, ...)*)(i8* %14)
  %16 = getelementptr inbounds [100 x i8], [100 x i8]* %7, i64 0, i64 0
  %17 = call i32 (i8*, ...) bitcast (i32 (...)* @gets to i32 (i8*, ...)*)(i8* %16)
  %18 = getelementptr inbounds [100 x i8], [100 x i8]* %8, i64 0, i64 0
  %19 = call i32 (i8*, ...) bitcast (i32 (...)* @gets to i32 (i8*, ...)*)(i8* %18)
  %20 = getelementptr inbounds [200 x i8], [200 x i8]* %6, i64 0, i64 0
  %21 = call i64 @strlen(i8* %20) #3
  %22 = trunc i64 %21 to i32
  store i32 %22, i32* %9, align 4
  %23 = getelementptr inbounds [100 x i8], [100 x i8]* %7, i64 0, i64 0
  %24 = call i64 @strlen(i8* %23) #3
  %25 = trunc i64 %24 to i32
  store i32 %25, i32* %13, align 4
  store i32 0, i32* %11, align 4
  br label %26

26:                                               ; preds = %89, %2
  %27 = load i32, i32* %11, align 4
  %28 = load i32, i32* %9, align 4
  %29 = sub nsw i32 %28, 1
  %30 = icmp sle i32 %27, %29
  br i1 %30, label %31, label %92

31:                                               ; preds = %26
  store i32 0, i32* %10, align 4
  %32 = load i32, i32* %11, align 4
  %33 = icmp eq i32 %32, 0
  br i1 %33, label %42, label %34

34:                                               ; preds = %31
  %35 = load i32, i32* %11, align 4
  %36 = sub nsw i32 %35, 1
  %37 = sext i32 %36 to i64
  %38 = getelementptr inbounds [200 x i8], [200 x i8]* %6, i64 0, i64 %37
  %39 = load i8, i8* %38, align 1
  %40 = sext i8 %39 to i32
  %41 = icmp eq i32 %40, 32
  br i1 %41, label %42, label %71

42:                                               ; preds = %34, %31
  store i32 1, i32* %10, align 4
  %43 = load i32, i32* %11, align 4
  store i32 %43, i32* %12, align 4
  br label %44

44:                                               ; preds = %67, %42
  %45 = load i32, i32* %12, align 4
  %46 = load i32, i32* %11, align 4
  %47 = load i32, i32* %13, align 4
  %48 = sub nsw i32 %47, 1
  %49 = add nsw i32 %46, %48
  %50 = icmp sle i32 %45, %49
  br i1 %50, label %51, label %70

51:                                               ; preds = %44
  %52 = load i32, i32* %12, align 4
  %53 = sext i32 %52 to i64
  %54 = getelementptr inbounds [200 x i8], [200 x i8]* %6, i64 0, i64 %53
  %55 = load i8, i8* %54, align 1
  %56 = sext i8 %55 to i32
  %57 = load i32, i32* %12, align 4
  %58 = load i32, i32* %11, align 4
  %59 = sub nsw i32 %57, %58
  %60 = sext i32 %59 to i64
  %61 = getelementptr inbounds [100 x i8], [100 x i8]* %7, i64 0, i64 %60
  %62 = load i8, i8* %61, align 1
  %63 = sext i8 %62 to i32
  %64 = icmp ne i32 %56, %63
  br i1 %64, label %65, label %66

65:                                               ; preds = %51
  store i32 0, i32* %10, align 4
  br label %66

66:                                               ; preds = %65, %51
  br label %67

67:                                               ; preds = %66
  %68 = load i32, i32* %12, align 4
  %69 = add nsw i32 %68, 1
  store i32 %69, i32* %12, align 4
  br label %44

70:                                               ; preds = %44
  br label %71

71:                                               ; preds = %70, %34
  %72 = load i32, i32* %10, align 4
  %73 = icmp eq i32 %72, 1
  br i1 %73, label %74, label %81

74:                                               ; preds = %71
  %75 = getelementptr inbounds [100 x i8], [100 x i8]* %8, i64 0, i64 0
  %76 = call i32 (i8*, ...) @printf(i8* getelementptr inbounds ([3 x i8], [3 x i8]* @.str, i64 0, i64 0), i8* %75)
  %77 = load i32, i32* %11, align 4
  %78 = load i32, i32* %13, align 4
  %79 = add nsw i32 %77, %78
  %80 = sub nsw i32 %79, 1
  store i32 %80, i32* %11, align 4
  br label %88

81:                                               ; preds = %71
  %82 = load i32, i32* %11, align 4
  %83 = sext i32 %82 to i64
  %84 = getelementptr inbounds [200 x i8], [200 x i8]* %6, i64 0, i64 %83
  %85 = load i8, i8* %84, align 1
  %86 = sext i8 %85 to i32
  %87 = call i32 (i8*, ...) @printf(i8* getelementptr inbounds ([3 x i8], [3 x i8]* @.str.1, i64 0, i64 0), i32 %86)
  br label %88

88:                                               ; preds = %81, %74
  br label %89

89:                                               ; preds = %88
  %90 = load i32, i32* %11, align 4
  %91 = add nsw i32 %90, 1
  store i32 %91, i32* %11, align 4
  br label %26

92:                                               ; preds = %26
  ret i32 0
}

declare dso_local i32 @gets(...) #1

; Function Attrs: nounwind readonly
declare dso_local i64 @strlen(i8*) #2

declare dso_local i32 @printf(i8*, ...) #1


!llvm.module.flags = !{!0}
!llvm.ident = !{!1}

!0 = !{i32 1, !"wchar_size", i32 4}
!1 = !{!"clang version 10.0.0-4ubuntu1 "}
